; Function Attrs: nounwind uwtable
define internal range(i32 0, 2) i32 @dh_match(ptr noundef %0, ptr noundef %1, i32 noundef %2) #0 {
  %4 = tail call i32 @ossl_prov_is_running() #8
  %.not = icmp eq i32 %4, 0
  br i1 %.not, label %39, label %5

5:                                                ; preds = %3
  %6 = and i32 %2, 3
  %.not41 = icmp eq i32 %6, 0
  br i1 %.not41, label %30, label %7

7:                                                ; preds = %5
  %8 = and i32 %2, 2
  %.not42 = icmp eq i32 %8, 0
  br i1 %.not42, label %17, label %9

9:                                                ; preds = %7
  %10 = tail call ptr @DH_get0_pub_key(ptr noundef %0) #8
  %11 = tail call ptr @DH_get0_pub_key(ptr noundef %1) #8
  %12 = icmp eq ptr %10, null
  %13 = icmp eq ptr %11, null
  %or.cond.not = select i1 %12, i1 true, i1 %13
  br i1 %or.cond.not, label %17, label %14

14:                                               ; preds = %9
  %15 = tail call i32 @BN_cmp(ptr noundef nonnull %10, ptr noundef nonnull %11) #8
  %16 = icmp eq i32 %15, 0
  br label %27

17:                                               ; preds = %7, %9
  %18 = and i32 %2, 1
  %.not46 = icmp eq i32 %18, 0
  br i1 %.not46, label %27, label %19

19:                                               ; preds = %17
  %20 = tail call ptr @DH_get0_priv_key(ptr noundef %0) #8
  %21 = tail call ptr @DH_get0_priv_key(ptr noundef %1) #8
  %22 = icmp ne ptr %20, null
  %23 = icmp ne ptr %21, null
  %or.cond3 = select i1 %22, i1 %23, i1 false
  br i1 %or.cond3, label %24, label %27

24:                                               ; preds = %19
  %25 = tail call i32 @BN_cmp(ptr noundef nonnull %20, ptr noundef nonnull %21) #8
  %26 = icmp eq i32 %25, 0
  br label %27

27:                                               ; preds = %14, %19, %24, %17
  %28 = phi i1 [ %16, %14 ], [ false, %17 ], [ %26, %24 ], [ false, %19 ]
  %29 = zext i1 %28 to i32
  br label %30

30:                                               ; preds = %27, %5
  %.032 = phi i32 [ %29, %27 ], [ 1, %5 ]
  %31 = and i32 %2, 4
  %.not48 = icmp eq i32 %31, 0
  br i1 %.not48, label %39, label %32

32:                                               ; preds = %30
  %33 = tail call ptr @ossl_dh_get0_params(ptr noundef %0) #8
  %34 = tail call ptr @ossl_dh_get0_params(ptr noundef %1) #8
  %.not49 = icmp eq i32 %.032, 0
  br i1 %.not49, label %39, label %35

35:                                               ; preds = %32
  %36 = tail call i32 @ossl_ffc_params_cmp(ptr noundef %33, ptr noundef %34, i32 noundef 1) #8
  %37 = icmp ne i32 %36, 0
  %38 = zext i1 %37 to i32
  br label %39

39:                                               ; preds = %30, %35, %32, %3
  %.0 = phi i32 [ 0, %3 ], [ %.032, %30 ], [ 0, %32 ], [ %38, %35 ]
  ret i32 %.0
}